target datalayout = "e-m:e-p270:32:32-p271:32:32-p272:64:64-i64:64-i128:128-f80:128-n8:16:32:64-S128"
target triple = "x86_64-pc-linux-gnu"

%struct.strbuf = type { i64, i64, ptr }
%struct.index_state = type { ptr, i32, i32, i32, i32, ptr, ptr, ptr, %struct.cache_time, i8, i32, %struct.hashmap, %struct.hashmap, %struct.object_id, ptr, ptr, ptr, ptr, ptr, ptr, ptr }
%struct.cache_time = type { i32, i32 }
%struct.hashmap = type { ptr, ptr, ptr, i32, i32, i32, i32, i8 }
%struct.object_id = type { [32 x i8], i32 }
%struct.cache_entry = type { %struct.hashmap_entry, %struct.stat_data, i32, i32, i32, i32, i32, %struct.object_id, [0 x i8] }
%struct.hashmap_entry = type { ptr, i32 }
%struct.stat_data = type { %struct.cache_time, %struct.cache_time, i32, i32, i32, i32, i32 }
%struct.split_index = type { %struct.object_id, ptr, ptr, ptr, ptr, i32, i32, i32, i32 }

; Function Attrs: inlinehint nounwind uwtable
define internal ptr @mem_pool__ce_calloc(ptr noundef %0, i64 noundef %1) #3 {
  %3 = alloca ptr, align 8
  %4 = alloca i64, align 8
  %5 = alloca ptr, align 8
  store ptr %0, ptr %3, align 8, !tbaa !76
  store i64 %1, ptr %4, align 8, !tbaa !31
  call void @llvm.lifetime.start.p0(i64 8, ptr %5) #12
  %6 = load ptr, ptr %3, align 8, !tbaa !76
  %7 = load i64, ptr %4, align 8, !tbaa !31
  %8 = add i64 108, %7
  %9 = add i64 %8, 1
  %10 = call ptr @mem_pool_calloc(ptr noundef %6, i64 noundef 1, i64 noundef %9)
  store ptr %10, ptr %5, align 8, !tbaa !29
  %11 = load ptr, ptr %5, align 8, !tbaa !29
  %12 = getelementptr inbounds nuw %struct.cache_entry, ptr %11, i32 0, i32 4
  store i32 1, ptr %12, align 4, !tbaa !9
  %13 = load ptr, ptr %5, align 8, !tbaa !29
  call void @llvm.lifetime.end.p0(i64 8, ptr %5) #12
  ret ptr %13
}

; Function Attrs: nounwind uwtable
define internal ptr @find_mem_pool(ptr noundef %0) #0 {
  %2 = alloca ptr, align 8
  %3 = alloca ptr, align 8
  store ptr %0, ptr %2, align 8, !tbaa !4
  call void @llvm.lifetime.start.p0(i64 8, ptr %3) #12
  %4 = load ptr, ptr %2, align 8, !tbaa !4
  %5 = getelementptr inbounds nuw %struct.index_state, ptr %4, i32 0, i32 7
  %6 = load ptr, ptr %5, align 8, !tbaa !77
  %7 = icmp ne ptr %6, null
  br i1 %7, label %8, label %22

8:                                                ; preds = %1
  %9 = load ptr, ptr %2, align 8, !tbaa !4
  %10 = getelementptr inbounds nuw %struct.index_state, ptr %9, i32 0, i32 7
  %11 = load ptr, ptr %10, align 8, !tbaa !77
  %12 = getelementptr inbounds nuw %struct.split_index, ptr %11, i32 0, i32 1
  %13 = load ptr, ptr %12, align 8, !tbaa !78
  %14 = icmp ne ptr %13, null
  br i1 %14, label %15, label %22

15:                                               ; preds = %8
  %16 = load ptr, ptr %2, align 8, !tbaa !4
  %17 = getelementptr inbounds nuw %struct.index_state, ptr %16, i32 0, i32 7
  %18 = load ptr, ptr %17, align 8, !tbaa !77
  %19 = getelementptr inbounds nuw %struct.split_index, ptr %18, i32 0, i32 1
  %20 = load ptr, ptr %19, align 8, !tbaa !78
  %21 = getelementptr inbounds nuw %struct.index_state, ptr %20, i32 0, i32 17
  store ptr %21, ptr %3, align 8, !tbaa !80
  br label %25

22:                                               ; preds = %8, %1
  %23 = load ptr, ptr %2, align 8, !tbaa !4
  %24 = getelementptr inbounds nuw %struct.index_state, ptr %23, i32 0, i32 17
  store ptr %24, ptr %3, align 8, !tbaa !80
  br label %25

25:                                               ; preds = %22, %15
  %26 = load ptr, ptr %3, align 8, !tbaa !80
  %27 = load ptr, ptr %26, align 8, !tbaa !76
  %28 = icmp ne ptr %27, null
  br i1 %28, label %34, label %29

29:                                               ; preds = %25
  %30 = call ptr @xmalloc(i64 noundef 24)
  %31 = load ptr, ptr %3, align 8, !tbaa !80
  store ptr %30, ptr %31, align 8, !tbaa !76
  %32 = load ptr, ptr %3, align 8, !tbaa !80
  %33 = load ptr, ptr %32, align 8, !tbaa !76
  call void @mem_pool_init(ptr noundef %33, i64 noundef 0)
  br label %34

34:                                               ; preds = %29, %25
  %35 = load ptr, ptr %3, align 8, !tbaa !80
  %36 = load ptr, ptr %35, align 8, !tbaa !76
  call void @llvm.lifetime.end.p0(i64 8, ptr %3) #12
  ret ptr %36
}

; Function Attrs: inlinehint nounwind uwtable
define internal void @oidcpy(ptr noundef %0, ptr noundef %1) #3 {
  %3 = alloca ptr, align 8
  %4 = alloca ptr, align 8
  store ptr %0, ptr %3, align 8, !tbaa !71
  store ptr %1, ptr %4, align 8, !tbaa !71
  %5 = load ptr, ptr %3, align 8, !tbaa !71
  %6 = getelementptr inbounds nuw %struct.object_id, ptr %5, i32 0, i32 0
  %7 = getelementptr inbounds [32 x i8], ptr %6, i64 0, i64 0
  %8 = load ptr, ptr %4, align 8, !tbaa !71
  %9 = getelementptr inbounds nuw %struct.object_id, ptr %8, i32 0, i32 0
  %10 = getelementptr inbounds [32 x i8], ptr %9, i64 0, i64 0
  call void @llvm.memcpy.p0.p0.i64(ptr align 4 %7, ptr align 4 %10, i64 32, i1 false)
  %11 = load ptr, ptr %4, align 8, !tbaa !71
  %12 = getelementptr inbounds nuw %struct.object_id, ptr %11, i32 0, i32 1
  %13 = load i32, ptr %12, align 4, !tbaa !74
  %14 = load ptr, ptr %3, align 8, !tbaa !71
  %15 = getelementptr inbounds nuw %struct.object_id, ptr %14, i32 0, i32 1
  store i32 %13, ptr %15, align 4, !tbaa !74
  ret void
}

; Function Attrs: inlinehint nounwind uwtable
define internal i32 @create_ce_flags(i32 noundef %0) #3 {
  %2 = alloca i32, align 4
  store i32 %0, ptr %2, align 4, !tbaa !9
  %3 = load i32, ptr %2, align 4, !tbaa !9
  %4 = shl i32 %3, 12
  ret i32 %4
}

; Function Attrs: inlinehint nounwind uwtable
define internal i32 @create_ce_mode(i32 noundef %0) #3 {
  %2 = alloca i32, align 4
  %3 = alloca i32, align 4
  store i32 %0, ptr %3, align 4, !tbaa !9
  %4 = load i32, ptr %3, align 4, !tbaa !9
  %5 = and i32 %4, 61440
  %6 = icmp eq i32 %5, 40960
  br i1 %6, label %7, label %8

7:                                                ; preds = %1
  store i32 40960, ptr %2, align 4
  br label %27

8:                                                ; preds = %1
  %9 = load i32, ptr %3, align 4, !tbaa !9
  %10 = icmp eq i32 %9, 16384
  br i1 %10, label %11, label %12

11:                                               ; preds = %8
  store i32 16384, ptr %2, align 4
  br label %27

12:                                               ; preds = %8
  %13 = load i32, ptr %3, align 4, !tbaa !9
  %14 = and i32 %13, 61440
  %15 = icmp eq i32 %14, 16384
  br i1 %15, label %20, label %16

16:                                               ; preds = %12
  %17 = load i32, ptr %3, align 4, !tbaa !9
  %18 = and i32 %17, 61440
  %19 = icmp eq i32 %18, 57344
  br i1 %19, label %20, label %21

20:                                               ; preds = %16, %12
  store i32 57344, ptr %2, align 4
  br label %27

21:                                               ; preds = %16
  %22 = load i32, ptr %3, align 4, !tbaa !9
  %23 = and i32 %22, 64
  %24 = icmp ne i32 %23, 0
  %25 = select i1 %24, i32 493, i32 420
  %26 = or i32 32768, %25
  store i32 %26, ptr %2, align 4
  br label %27

27:                                               ; preds = %21, %20, %11, %7
  %28 = load i32, ptr %2, align 4
  ret i32 %28
}

; Function Attrs: nounwind uwtable
define dso_local ptr @make_empty_cache_entry(ptr noundef %0, i64 noundef %1) #0 {
  %3 = alloca ptr, align 8
  %4 = alloca i64, align 8
  store ptr %0, ptr %3, align 8, !tbaa !4
  store i64 %1, ptr %4, align 8, !tbaa !31
  %5 = load ptr, ptr %3, align 8, !tbaa !4
  %6 = call ptr @find_mem_pool(ptr noundef %5)
  %7 = load i64, ptr %4, align 8, !tbaa !31
  %8 = call ptr @mem_pool__ce_calloc(ptr noundef %6, i64 noundef %7)
  ret ptr %8
}

; Function Attrs: nounwind uwtable
define internal i32 @read_one_entry_opt(ptr noundef %0, ptr noundef %1, ptr noundef %2, ptr noundef %3, i32 noundef %4, i32 noundef %5) #0 {
  %7 = alloca i32, align 4
  %8 = alloca ptr, align 8
  %9 = alloca ptr, align 8
  %10 = alloca ptr, align 8
  %11 = alloca ptr, align 8
  %12 = alloca i32, align 4
  %13 = alloca i32, align 4
  %14 = alloca i32, align 4
  %15 = alloca ptr, align 8
  %16 = alloca i32, align 4
  store ptr %0, ptr %8, align 8, !tbaa !4
  store ptr %1, ptr %9, align 8, !tbaa !71
  store ptr %2, ptr %10, align 8, !tbaa !164
  store ptr %3, ptr %11, align 8, !tbaa !11
  store i32 %4, ptr %12, align 4, !tbaa !9
  store i32 %5, ptr %13, align 4, !tbaa !9
  call void @llvm.lifetime.start.p0(i64 4, ptr %14) #12
  call void @llvm.lifetime.start.p0(i64 8, ptr %15) #12
  %17 = load i32, ptr %12, align 4, !tbaa !9
  %18 = and i32 %17, 61440
  %19 = icmp eq i32 %18, 16384
  br i1 %19, label %20, label %21

20:                                               ; preds = %6
  store i32 1, ptr %7, align 4
  store i32 1, ptr %16, align 4
  br label %76

21:                                               ; preds = %6
  %22 = load ptr, ptr %11, align 8, !tbaa !11
  %23 = call i64 @strlen(ptr noundef %22) #13
  %24 = trunc i64 %23 to i32
  store i32 %24, ptr %14, align 4, !tbaa !9
  %25 = load ptr, ptr %8, align 8, !tbaa !4
  %26 = load ptr, ptr %10, align 8, !tbaa !164
  %27 = getelementptr inbounds nuw %struct.strbuf, ptr %26, i32 0, i32 1
  %28 = load i64, ptr %27, align 8, !tbaa !197
  %29 = load i32, ptr %14, align 4, !tbaa !9
  %30 = sext i32 %29 to i64
  %31 = add i64 %28, %30
  %32 = call ptr @make_empty_cache_entry(ptr noundef %25, i64 noundef %31)
  store ptr %32, ptr %15, align 8, !tbaa !29
  %33 = load i32, ptr %12, align 4, !tbaa !9
  %34 = call i32 @create_ce_mode(i32 noundef %33)
  %35 = load ptr, ptr %15, align 8, !tbaa !29
  %36 = getelementptr inbounds nuw %struct.cache_entry, ptr %35, i32 0, i32 2
  store i32 %34, ptr %36, align 4, !tbaa !9
  %37 = call i32 @create_ce_flags(i32 noundef 1)
  %38 = load ptr, ptr %15, align 8, !tbaa !29
  %39 = getelementptr inbounds nuw %struct.cache_entry, ptr %38, i32 0, i32 3
  store i32 %37, ptr %39, align 8, !tbaa !9
  %40 = load ptr, ptr %10, align 8, !tbaa !164
  %41 = getelementptr inbounds nuw %struct.strbuf, ptr %40, i32 0, i32 1
  %42 = load i64, ptr %41, align 8, !tbaa !197
  %43 = load i32, ptr %14, align 4, !tbaa !9
  %44 = sext i32 %43 to i64
  %45 = add i64 %42, %44
  %46 = trunc i64 %45 to i32
  %47 = load ptr, ptr %15, align 8, !tbaa !29
  %48 = getelementptr inbounds nuw %struct.cache_entry, ptr %47, i32 0, i32 5
  store i32 %46, ptr %48, align 8, !tbaa !9
  %49 = load ptr, ptr %15, align 8, !tbaa !29
  %50 = getelementptr inbounds nuw %struct.cache_entry, ptr %49, i32 0, i32 8
  %51 = getelementptr inbounds [0 x i8], ptr %50, i64 0, i64 0
  %52 = load ptr, ptr %10, align 8, !tbaa !164
  %53 = getelementptr inbounds nuw %struct.strbuf, ptr %52, i32 0, i32 2
  %54 = load ptr, ptr %53, align 8, !tbaa !195
  %55 = load ptr, ptr %10, align 8, !tbaa !164
  %56 = getelementptr inbounds nuw %struct.strbuf, ptr %55, i32 0, i32 1
  %57 = load i64, ptr %56, align 8, !tbaa !197
  call void @llvm.memcpy.p0.p0.i64(ptr align 4 %51, ptr align 1 %54, i64 %57, i1 false)
  %58 = load ptr, ptr %15, align 8, !tbaa !29
  %59 = getelementptr inbounds nuw %struct.cache_entry, ptr %58, i32 0, i32 8
  %60 = getelementptr inbounds [0 x i8], ptr %59, i64 0, i64 0
  %61 = load ptr, ptr %10, align 8, !tbaa !164
  %62 = getelementptr inbounds nuw %struct.strbuf, ptr %61, i32 0, i32 1
  %63 = load i64, ptr %62, align 8, !tbaa !197
  %64 = getelementptr inbounds nuw i8, ptr %60, i64 %63
  %65 = load ptr, ptr %11, align 8, !tbaa !11
  %66 = load i32, ptr %14, align 4, !tbaa !9
  %67 = add nsw i32 %66, 1
  %68 = sext i32 %67 to i64
  call void @llvm.memcpy.p0.p0.i64(ptr align 1 %64, ptr align 1 %65, i64 %68, i1 false)
  %69 = load ptr, ptr %15, align 8, !tbaa !29
  %70 = getelementptr inbounds nuw %struct.cache_entry, ptr %69, i32 0, i32 7
  %71 = load ptr, ptr %9, align 8, !tbaa !71
  call void @oidcpy(ptr noundef %70, ptr noundef %71)
  %72 = load ptr, ptr %8, align 8, !tbaa !4
  %73 = load ptr, ptr %15, align 8, !tbaa !29
  %74 = load i32, ptr %13, align 4, !tbaa !9
  %75 = call i32 @add_index_entry(ptr noundef %72, ptr noundef %73, i32 noundef %74)
  store i32 %75, ptr %7, align 4
  store i32 1, ptr %16, align 4
  br label %76

76:                                               ; preds = %21, %20
  call void @llvm.lifetime.end.p0(i64 8, ptr %15) #12
  call void @llvm.lifetime.end.p0(i64 4, ptr %14) #12
  %77 = load i32, ptr %7, align 4
  ret i32 %77
}