; Function Attrs: nounwind uwtable
define internal fastcc range(i32 -2147483647, 2) i32 @read_one_entry_opt(ptr noundef %0, ptr noundef readonly captures(none) %1, ptr noundef readonly captures(none) %2, ptr noundef readonly captures(none) %3, i32 noundef %4, i32 noundef range(i32 5, 9) %5) unnamed_addr #0 {
  %7 = and i32 %4, 61440
  %8 = icmp eq i32 %7, 16384
  br i1 %8, label %51, label %9

9:                                                ; preds = %6
  %10 = tail call i64 @strlen(ptr noundef nonnull dereferenceable(1) %3) #29
  %11 = getelementptr inbounds nuw i8, ptr %2, i64 8
  %12 = load i64, ptr %11, align 8, !tbaa !73
  %sext = shl i64 %10, 32
  %13 = ashr exact i64 %sext, 32
  %14 = getelementptr inbounds nuw i8, ptr %0, i64 40
  %15 = load ptr, ptr %14, align 8, !tbaa !27
  %.not.i.i = icmp eq ptr %15, null
  br i1 %.not.i.i, label %19, label %16

16:                                               ; preds = %9
  %17 = getelementptr inbounds nuw i8, ptr %15, i64 40
  %18 = load ptr, ptr %17, align 8, !tbaa !28
  %.not10.i.i = icmp eq ptr %18, null
  br i1 %.not10.i.i, label %19, label %20

19:                                               ; preds = %16, %9
  br label %20

20:                                               ; preds = %19, %16
  %.pn.i.i = phi ptr [ %0, %19 ], [ %18, %16 ]
  %.0.i.i = getelementptr inbounds nuw i8, ptr %.pn.i.i, i64 224
  %21 = load ptr, ptr %.0.i.i, align 8, !tbaa !31
  %.not11.i.i = icmp eq ptr %21, null
  br i1 %.not11.i.i, label %22, label %make_empty_cache_entry.exit

22:                                               ; preds = %20
  %23 = tail call ptr @xmalloc(i64 noundef 24) #30
  store ptr %23, ptr %.0.i.i, align 8, !tbaa !31
  tail call void @mem_pool_init(ptr noundef %23, i64 noundef 0) #30
  %.pre.i.i = load ptr, ptr %.0.i.i, align 8, !tbaa !31
  br label %make_empty_cache_entry.exit

make_empty_cache_entry.exit:                      ; preds = %20, %22
  %24 = phi ptr [ %.pre.i.i, %22 ], [ %21, %20 ]
  %25 = add i64 %12, 109
  %26 = add i64 %25, %13
  %27 = tail call ptr @mem_pool_calloc(ptr noundef %24, i64 noundef 1, i64 noundef %26) #30
  %28 = getelementptr inbounds nuw i8, ptr %27, i64 60
  store i32 1, ptr %28, align 4, !tbaa !32
  %29 = icmp eq i32 %7, 40960
  br i1 %29, label %create_ce_mode.exit, label %30

30:                                               ; preds = %make_empty_cache_entry.exit
  %trunc.i = trunc nuw i32 %7 to i16
  switch i16 %trunc.i, label %31 [
    i16 16384, label %create_ce_mode.exit
    i16 -8192, label %create_ce_mode.exit
  ]

31:                                               ; preds = %30
  %32 = and i32 %4, 64
  %.not.i = icmp eq i32 %32, 0
  %33 = select i1 %.not.i, i32 33188, i32 33261
  br label %create_ce_mode.exit

create_ce_mode.exit:                              ; preds = %make_empty_cache_entry.exit, %30, %30, %31
  %.0.i = phi i32 [ %33, %31 ], [ 40960, %make_empty_cache_entry.exit ], [ 57344, %30 ], [ 57344, %30 ]
  %34 = getelementptr inbounds nuw i8, ptr %27, i64 52
  store i32 %.0.i, ptr %34, align 4, !tbaa !32
  %35 = getelementptr inbounds nuw i8, ptr %27, i64 56
  store i32 4096, ptr %35, align 8, !tbaa !32
  %36 = load i64, ptr %11, align 8, !tbaa !73
  %37 = add i64 %36, %10
  %38 = trunc i64 %37 to i32
  %39 = getelementptr inbounds nuw i8, ptr %27, i64 64
  store i32 %38, ptr %39, align 8, !tbaa !32
  %40 = getelementptr inbounds nuw i8, ptr %27, i64 108
  %41 = getelementptr inbounds nuw i8, ptr %2, i64 16
  %42 = load ptr, ptr %41, align 8, !tbaa !75
  tail call void @llvm.memcpy.p0.p0.i64(ptr nonnull align 4 %40, ptr align 1 %42, i64 %36, i1 false)
  %43 = load i64, ptr %11, align 8, !tbaa !73
  %44 = getelementptr inbounds nuw i8, ptr %40, i64 %43
  %sext23 = add i64 %sext, 4294967296
  %45 = ashr exact i64 %sext23, 32
  tail call void @llvm.memcpy.p0.p0.i64(ptr nonnull align 1 %44, ptr nonnull align 1 %3, i64 %45, i1 false)
  %46 = getelementptr inbounds nuw i8, ptr %27, i64 72
  tail call void @llvm.memcpy.p0.p0.i64(ptr noundef nonnull align 4 dereferenceable(32) %46, ptr noundef nonnull readonly align 4 dereferenceable(32) %1, i64 32, i1 false)
  %47 = getelementptr inbounds nuw i8, ptr %1, i64 32
  %48 = load i32, ptr %47, align 4, !tbaa !79
  %49 = getelementptr inbounds nuw i8, ptr %27, i64 104
  store i32 %48, ptr %49, align 4, !tbaa !79
  %50 = tail call i32 @add_index_entry(ptr noundef nonnull %0, ptr noundef nonnull %27, i32 noundef %5)
  br label %51

51:                                               ; preds = %6, %create_ce_mode.exit
  %.0 = phi i32 [ %50, %create_ce_mode.exit ], [ 1, %6 ]
  ret i32 %.0
}